target datalayout = "e-m:e-p270:32:32-p271:32:32-p272:64:64-i64:64-i128:128-f80:128-n8:16:32:64-S128"
target triple = "x86_64-pc-linux-gnu"

%struct.SDL_Rect = type { i32, i32, i32, i32 }
%struct.SDL_VideoData = type { ptr, ptr, i32, ptr, i64, i32, ptr, i32, i64, i64, %struct.X11_ClipboardData, %struct.X11_ClipboardData, ptr, i64, %struct.X11_SettingsData, i8, %struct.anon.1, [256 x i32], i8, i8, i8, i64, i8, %struct.SDL_Point, i32, ptr, i32, i8, i32, %struct.anon.2, i8, i64, ptr, ptr, i8, i8, i8 }
%struct.X11_ClipboardData = type { ptr, ptr, ptr, i64, i32 }
%struct.X11_SettingsData = type { ptr }
%struct.anon.1 = type { i64, i64, i64, i64, i64, i64, i64, i64, i64, i64, i64, i64, i64, i64, i64, i64, i64, i64, i64, i64, i64, i64, i64, i64, i64, i64, i64, i64, i64, i64, i64, i64, i64, i64, i64, i64, i64, i64, i64, i64, i64, i64, i64, i64, i64, i64, i64, i64, i64, i64, i64, i64, i64 }
%struct.SDL_Point = type { i32, i32 }
%struct.anon.2 = type { ptr, i32, i32, i32, i16, i32, i32 }
%struct.SDL_Window = type { i32, ptr, ptr, i32, i32, i32, i32, i32, i32, i32, i32, float, float, i32, i32, i64, i64, float, i8, i8, i32, i32, %struct.SDL_Rect, %struct.SDL_Rect, %struct.SDL_Rect, i8, i8, i8, %struct.SDL_DisplayMode, %struct.SDL_DisplayMode, %struct.SDL_HDROutputProperties, float, ptr, i8, i8, i8, i8, i8, i8, i8, i8, i8, i32, i32, i32, i32, %struct.SDL_Rect, i32, i8, %struct.SDL_Rect, i32, %struct.SDL_Rect, ptr, ptr, i32, float, i32, i32, ptr, ptr, ptr, ptr, ptr, ptr, ptr, ptr, ptr }
%struct.SDL_DisplayMode = type { i32, i32, i32, i32, float, float, i32, i32, ptr }
%struct.SDL_HDROutputProperties = type { float, float }
%struct.SDL_WindowData = type { ptr, i64, ptr, i64, i8, %struct.XShmSegmentInfo, ptr, ptr, ptr, i8, i32, i32, i32, i32, i8, i8, i8, i64, i32, i64, i8, %struct.SDL_Point, %struct.XConfigureEvent, %struct.XConfigureEvent, ptr, i64, i64, i64, i8, i64, ptr, i8, [4 x i64], %struct.SDL_Rect, i64, %struct._XSyncValue, i8, %struct.SDL_Rect, %struct.SDL_DisplayMode, i32, i32, i8, i8, i8, i8, i8, i8, i8, i8, i32, %struct.XPoint, ptr, ptr, i32, i32, i8 }
%struct.XShmSegmentInfo = type { i64, i32, ptr, i32 }
%struct.XConfigureEvent = type { i32, i64, i32, ptr, i64, i64, i32, i32, i32, i32, i32, i64, i32 }
%struct._XSyncValue = type { i32, i32 }
%struct.XPoint = type { i16, i16 }

@X11_XMoveWindow = external global ptr, align 8

; Function Attrs: nounwind uwtable
define hidden void @X11_UpdateWindowPosition(ptr noundef %0, i1 noundef zeroext %1) #0 {
  %3 = alloca ptr, align 8
  %4 = alloca i8, align 1
  %5 = alloca ptr, align 8
  %6 = alloca ptr, align 8
  %7 = alloca i32, align 4
  %8 = alloca i32, align 4
  store ptr %0, ptr %3, align 8
  %9 = zext i1 %1 to i8
  store i8 %9, ptr %4, align 1
  call void @llvm.lifetime.start.p0(i64 8, ptr %5) #7
  %10 = load ptr, ptr %3, align 8
  %11 = getelementptr inbounds nuw %struct.SDL_Window, ptr %10, i32 0, i32 59
  %12 = load ptr, ptr %11, align 8
  store ptr %12, ptr %5, align 8
  call void @llvm.lifetime.start.p0(i64 8, ptr %6) #7
  %13 = load ptr, ptr %5, align 8
  %14 = getelementptr inbounds nuw %struct.SDL_WindowData, ptr %13, i32 0, i32 24
  %15 = load ptr, ptr %14, align 8
  %16 = getelementptr inbounds nuw %struct.SDL_VideoData, ptr %15, i32 0, i32 0
  %17 = load ptr, ptr %16, align 8
  store ptr %17, ptr %6, align 8
  call void @llvm.lifetime.start.p0(i64 4, ptr %7) #7
  %18 = load i8, ptr %4, align 1, !range !5, !noundef !6
  %19 = trunc i8 %18 to i1
  br i1 %19, label %20, label %24

20:                                               ; preds = %2
  %21 = load ptr, ptr %3, align 8
  %22 = getelementptr inbounds nuw %struct.SDL_Window, ptr %21, i32 0, i32 3
  %23 = load i32, ptr %22, align 8
  br label %29

24:                                               ; preds = %2
  %25 = load ptr, ptr %3, align 8
  %26 = getelementptr inbounds nuw %struct.SDL_Window, ptr %25, i32 0, i32 24
  %27 = getelementptr inbounds nuw %struct.SDL_Rect, ptr %26, i32 0, i32 0
  %28 = load i32, ptr %27, align 8
  br label %29

29:                                               ; preds = %24, %20
  %30 = phi i32 [ %23, %20 ], [ %28, %24 ]
  store i32 %30, ptr %7, align 4
  call void @llvm.lifetime.start.p0(i64 4, ptr %8) #7
  %31 = load i8, ptr %4, align 1, !range !5, !noundef !6
  %32 = trunc i8 %31 to i1
  br i1 %32, label %33, label %37

33:                                               ; preds = %29
  %34 = load ptr, ptr %3, align 8
  %35 = getelementptr inbounds nuw %struct.SDL_Window, ptr %34, i32 0, i32 4
  %36 = load i32, ptr %35, align 4
  br label %42

37:                                               ; preds = %29
  %38 = load ptr, ptr %3, align 8
  %39 = getelementptr inbounds nuw %struct.SDL_Window, ptr %38, i32 0, i32 24
  %40 = getelementptr inbounds nuw %struct.SDL_Rect, ptr %39, i32 0, i32 1
  %41 = load i32, ptr %40, align 4
  br label %42

42:                                               ; preds = %37, %33
  %43 = phi i32 [ %36, %33 ], [ %41, %37 ]
  store i32 %43, ptr %8, align 4
  %44 = load ptr, ptr %3, align 8
  %45 = load i32, ptr %7, align 4
  %46 = load ptr, ptr %5, align 8
  %47 = getelementptr inbounds nuw %struct.SDL_WindowData, ptr %46, i32 0, i32 10
  %48 = load i32, ptr %47, align 4
  %49 = sub nsw i32 %45, %48
  %50 = load i32, ptr %8, align 4
  %51 = load ptr, ptr %5, align 8
  %52 = getelementptr inbounds nuw %struct.SDL_WindowData, ptr %51, i32 0, i32 12
  %53 = load i32, ptr %52, align 4
  %54 = sub nsw i32 %50, %53
  %55 = load ptr, ptr %5, align 8
  %56 = getelementptr inbounds nuw %struct.SDL_WindowData, ptr %55, i32 0, i32 37
  %57 = getelementptr inbounds nuw %struct.SDL_Rect, ptr %56, i32 0, i32 0
  %58 = load ptr, ptr %5, align 8
  %59 = getelementptr inbounds nuw %struct.SDL_WindowData, ptr %58, i32 0, i32 37
  %60 = getelementptr inbounds nuw %struct.SDL_Rect, ptr %59, i32 0, i32 1
  call void @SDL_RelativeToGlobalForWindow(ptr noundef %44, i32 noundef %49, i32 noundef %54, ptr noundef %57, ptr noundef %60)
  %61 = load ptr, ptr %3, align 8
  %62 = getelementptr inbounds nuw %struct.SDL_Window, ptr %61, i32 0, i32 15
  %63 = load i64, ptr %62, align 8
  %64 = and i64 %63, 8
  %65 = icmp ne i64 %64, 0
  br i1 %65, label %66, label %71

66:                                               ; preds = %42
  %67 = load ptr, ptr %3, align 8
  %68 = getelementptr inbounds nuw %struct.SDL_Window, ptr %67, i32 0, i32 59
  %69 = load ptr, ptr %68, align 8
  %70 = getelementptr inbounds nuw %struct.SDL_WindowData, ptr %69, i32 0, i32 42
  store i8 1, ptr %70, align 1
  br label %90

71:                                               ; preds = %42
  %72 = load ptr, ptr %5, align 8
  %73 = getelementptr inbounds nuw %struct.SDL_WindowData, ptr %72, i32 0, i32 39
  %74 = load i32, ptr %73, align 8
  %75 = or i32 %74, 16
  store i32 %75, ptr %73, align 8
  %76 = load ptr, ptr @X11_XMoveWindow, align 8
  %77 = load ptr, ptr %6, align 8
  %78 = load ptr, ptr %5, align 8
  %79 = getelementptr inbounds nuw %struct.SDL_WindowData, ptr %78, i32 0, i32 1
  %80 = load i64, ptr %79, align 8
  %81 = load ptr, ptr %5, align 8
  %82 = getelementptr inbounds nuw %struct.SDL_WindowData, ptr %81, i32 0, i32 37
  %83 = getelementptr inbounds nuw %struct.SDL_Rect, ptr %82, i32 0, i32 0
  %84 = load i32, ptr %83, align 4
  %85 = load ptr, ptr %5, align 8
  %86 = getelementptr inbounds nuw %struct.SDL_WindowData, ptr %85, i32 0, i32 37
  %87 = getelementptr inbounds nuw %struct.SDL_Rect, ptr %86, i32 0, i32 1
  %88 = load i32, ptr %87, align 4
  %89 = call i32 %76(ptr noundef %77, i64 noundef %80, i32 noundef %84, i32 noundef %88)
  br label %90

90:                                               ; preds = %71, %66
  call void @llvm.lifetime.end.p0(i64 4, ptr %8) #7
  call void @llvm.lifetime.end.p0(i64 4, ptr %7) #7
  call void @llvm.lifetime.end.p0(i64 8, ptr %6) #7
  call void @llvm.lifetime.end.p0(i64 8, ptr %5) #7
  ret void
}

; Function Attrs: nounwind uwtable
define internal void @X11_FlushPendingEvents(ptr noundef %0, ptr noundef %1) #0 {
  %3 = alloca ptr, align 8
  %4 = alloca ptr, align 8
  %5 = alloca i8, align 1
  %6 = alloca i8, align 1
  store ptr %0, ptr %3, align 8
  store ptr %1, ptr %4, align 8
  call void @llvm.lifetime.start.p0(i64 1, ptr %5) #7
  %7 = load ptr, ptr %4, align 8
  %8 = getelementptr inbounds nuw %struct.SDL_Window, ptr %7, i32 0, i32 36
  %9 = load i8, ptr %8, align 1, !range !5, !noundef !6
  %10 = trunc i8 %9 to i1
  %11 = zext i1 %10 to i8
  store i8 %11, ptr %5, align 1
  call void @llvm.lifetime.start.p0(i64 1, ptr %6) #7
  %12 = load ptr, ptr %4, align 8
  %13 = getelementptr inbounds nuw %struct.SDL_Window, ptr %12, i32 0, i32 37
  %14 = load i8, ptr %13, align 4, !range !5, !noundef !6
  %15 = trunc i8 %14 to i1
  %16 = zext i1 %15 to i8
  store i8 %16, ptr %6, align 1
  %17 = load ptr, ptr %3, align 8
  %18 = load ptr, ptr %4, align 8
  %19 = call zeroext i1 @X11_SyncWindow(ptr noundef %17, ptr noundef %18)
  %20 = load i8, ptr %5, align 1, !range !5, !noundef !6
  %21 = trunc i8 %20 to i1
  %22 = load ptr, ptr %4, align 8
  %23 = getelementptr inbounds nuw %struct.SDL_Window, ptr %22, i32 0, i32 36
  %24 = zext i1 %21 to i8
  store i8 %24, ptr %23, align 1
  %25 = load i8, ptr %6, align 1, !range !5, !noundef !6
  %26 = trunc i8 %25 to i1
  %27 = load ptr, ptr %4, align 8
  %28 = getelementptr inbounds nuw %struct.SDL_Window, ptr %27, i32 0, i32 37
  %29 = zext i1 %26 to i8
  store i8 %29, ptr %28, align 4
  call void @llvm.lifetime.end.p0(i64 1, ptr %6) #7
  call void @llvm.lifetime.end.p0(i64 1, ptr %5) #7
  ret void
}

; Function Attrs: nounwind uwtable
define hidden zeroext i1 @X11_SetWindowPosition(ptr noundef %0, ptr noundef %1) #0 {
  %3 = alloca i1, align 1
  %4 = alloca ptr, align 8
  %5 = alloca ptr, align 8
  store ptr %0, ptr %4, align 8
  store ptr %1, ptr %5, align 8
  %6 = load ptr, ptr %5, align 8
  %7 = getelementptr inbounds nuw %struct.SDL_Window, ptr %6, i32 0, i32 59
  %8 = load ptr, ptr %7, align 8
  %9 = getelementptr inbounds nuw %struct.SDL_WindowData, ptr %8, i32 0, i32 39
  %10 = load i32, ptr %9, align 8
  %11 = and i32 %10, 12
  %12 = icmp ne i32 %11, 0
  br i1 %12, label %13, label %16

13:                                               ; preds = %2
  %14 = load ptr, ptr %4, align 8
  %15 = load ptr, ptr %5, align 8
  call void @X11_FlushPendingEvents(ptr noundef %14, ptr noundef %15)
  br label %16

16:                                               ; preds = %13, %2
  %17 = load ptr, ptr %5, align 8
  %18 = getelementptr inbounds nuw %struct.SDL_Window, ptr %17, i32 0, i32 15
  %19 = load i64, ptr %18, align 8
  %20 = and i64 %19, 128
  %21 = icmp ne i64 %20, 0
  br i1 %21, label %22, label %36

22:                                               ; preds = %16
  %23 = load ptr, ptr %5, align 8
  %24 = getelementptr inbounds nuw %struct.SDL_Window, ptr %23, i32 0, i32 59
  %25 = load ptr, ptr %24, align 8
  %26 = getelementptr inbounds nuw %struct.SDL_WindowData, ptr %25, i32 0, i32 39
  %27 = load i32, ptr %26, align 8
  %28 = and i32 %27, 1
  %29 = icmp ne i32 %28, 0
  br i1 %29, label %30, label %35

30:                                               ; preds = %22
  %31 = load ptr, ptr %5, align 8
  %32 = getelementptr inbounds nuw %struct.SDL_Window, ptr %31, i32 0, i32 59
  %33 = load ptr, ptr %32, align 8
  %34 = getelementptr inbounds nuw %struct.SDL_WindowData, ptr %33, i32 0, i32 42
  store i8 1, ptr %34, align 1
  br label %35

35:                                               ; preds = %30, %22
  store i1 true, ptr %3, align 1
  br label %56

36:                                               ; preds = %16
  %37 = load ptr, ptr %5, align 8
  %38 = getelementptr inbounds nuw %struct.SDL_Window, ptr %37, i32 0, i32 15
  %39 = load i64, ptr %38, align 8
  %40 = and i64 %39, 1
  %41 = icmp ne i64 %40, 0
  br i1 %41, label %52, label %42

42:                                               ; preds = %36
  %43 = load ptr, ptr %5, align 8
  %44 = getelementptr inbounds nuw %struct.SDL_Window, ptr %43, i32 0, i32 15
  %45 = load i64, ptr %44, align 8
  %46 = and i64 %45, 786432
  %47 = icmp ne i64 %46, 0
  br i1 %47, label %48, label %50

48:                                               ; preds = %42
  %49 = load ptr, ptr %5, align 8
  call void @X11_ConstrainPopup(ptr noundef %49, i1 noundef zeroext true)
  br label %50

50:                                               ; preds = %48, %42
  %51 = load ptr, ptr %5, align 8
  call void @X11_UpdateWindowPosition(ptr noundef %51, i1 noundef zeroext false)
  br label %55

52:                                               ; preds = %36
  %53 = load ptr, ptr %5, align 8
  %54 = call zeroext i1 @SDL_UpdateFullscreenMode(ptr noundef %53, i32 noundef 2, i1 noundef zeroext true)
  br label %55

55:                                               ; preds = %52, %50
  store i1 true, ptr %3, align 1
  br label %56

56:                                               ; preds = %55, %35
  %57 = load i1, ptr %3, align 1
  ret i1 %57
}