; Function Attrs: nounwind uwtable
define hidden noundef zeroext i1 @X11_SetWindowPosition(ptr noundef %0, ptr noundef %1) local_unnamed_addr #0 {
  %3 = getelementptr inbounds nuw i8, ptr %1, i64 392
  %4 = load ptr, ptr %3, align 8
  %5 = getelementptr inbounds nuw i8, ptr %4, i64 528
  %6 = load i32, ptr %5, align 8
  %7 = and i32 %6, 12
  %.not = icmp eq i32 %7, 0
  br i1 %.not, label %14, label %8

8:                                                ; preds = %2
  %9 = getelementptr inbounds nuw i8, ptr %1, i64 267
  %10 = load i8, ptr %9, align 1, !range !5, !noundef !6
  %11 = getelementptr inbounds nuw i8, ptr %1, i64 268
  %12 = load i8, ptr %11, align 4, !range !5, !noundef !6
  %13 = tail call zeroext i1 @X11_SyncWindow(ptr noundef %0, ptr noundef nonnull %1)
  store i8 %10, ptr %9, align 1
  store i8 %12, ptr %11, align 4
  br label %14

14:                                               ; preds = %8, %2
  %15 = getelementptr inbounds nuw i8, ptr %1, i64 72
  %16 = load i64, ptr %15, align 8
  %17 = and i64 %16, 128
  %.not12 = icmp eq i64 %17, 0
  br i1 %.not12, label %25, label %18

18:                                               ; preds = %14
  %19 = load ptr, ptr %3, align 8
  %20 = getelementptr inbounds nuw i8, ptr %19, i64 528
  %21 = load i32, ptr %20, align 8
  %22 = and i32 %21, 1
  %.not15 = icmp eq i32 %22, 0
  br i1 %.not15, label %X11_UpdateWindowPosition.exit, label %23

23:                                               ; preds = %18
  %24 = getelementptr inbounds nuw i8, ptr %19, i64 537
  store i8 1, ptr %24, align 1
  br label %X11_UpdateWindowPosition.exit

25:                                               ; preds = %14
  %26 = and i64 %16, 1
  %.not13 = icmp eq i64 %26, 0
  br i1 %.not13, label %27, label %60

27:                                               ; preds = %25
  %28 = and i64 %16, 786432
  %.not14 = icmp eq i64 %28, 0
  br i1 %.not14, label %30, label %29

29:                                               ; preds = %27
  tail call fastcc void @X11_ConstrainPopup(ptr noundef nonnull %1, i1 noundef zeroext true)
  br label %30

30:                                               ; preds = %29, %27
  %31 = load ptr, ptr %3, align 8
  %32 = getelementptr inbounds nuw i8, ptr %31, i64 336
  %33 = load ptr, ptr %32, align 8
  %34 = load ptr, ptr %33, align 8
  %.in.i = getelementptr inbounds nuw i8, ptr %1, i64 136
  %35 = load i32, ptr %.in.i, align 8
  %.in21.i = getelementptr inbounds nuw i8, ptr %1, i64 140
  %36 = load i32, ptr %.in21.i, align 4
  %37 = getelementptr inbounds nuw i8, ptr %31, i64 100
  %38 = load i32, ptr %37, align 4
  %39 = sub nsw i32 %35, %38
  %40 = getelementptr inbounds nuw i8, ptr %31, i64 108
  %41 = load i32, ptr %40, align 4
  %42 = sub nsw i32 %36, %41
  %43 = getelementptr inbounds nuw i8, ptr %31, i64 468
  %44 = getelementptr inbounds nuw i8, ptr %31, i64 472
  tail call void @SDL_RelativeToGlobalForWindow(ptr noundef nonnull %1, i32 noundef %39, i32 noundef %42, ptr noundef nonnull %43, ptr noundef nonnull %44) #12
  %45 = load i64, ptr %15, align 8
  %46 = and i64 %45, 8
  %.not.i = icmp eq i64 %46, 0
  br i1 %.not.i, label %50, label %47

47:                                               ; preds = %30
  %48 = load ptr, ptr %3, align 8
  %49 = getelementptr inbounds nuw i8, ptr %48, i64 537
  store i8 1, ptr %49, align 1
  br label %X11_UpdateWindowPosition.exit

50:                                               ; preds = %30
  %51 = getelementptr inbounds nuw i8, ptr %31, i64 528
  %52 = load i32, ptr %51, align 8
  %53 = or i32 %52, 16
  store i32 %53, ptr %51, align 8
  %54 = load ptr, ptr @X11_XMoveWindow, align 8
  %55 = getelementptr inbounds nuw i8, ptr %31, i64 8
  %56 = load i64, ptr %55, align 8
  %57 = load i32, ptr %43, align 4
  %58 = load i32, ptr %44, align 4
  %59 = tail call i32 %54(ptr noundef %34, i64 noundef %56, i32 noundef %57, i32 noundef %58) #12
  br label %X11_UpdateWindowPosition.exit

60:                                               ; preds = %25
  %61 = tail call zeroext i1 @SDL_UpdateFullscreenMode(ptr noundef nonnull %1, i32 noundef 2, i1 noundef zeroext true) #12
  br label %X11_UpdateWindowPosition.exit

X11_UpdateWindowPosition.exit:                    ; preds = %50, %47, %60, %18, %23
  ret i1 true
}